; Function Attrs: nounwind uwtable
define internal noundef ptr @err_writeunraisable(ptr readnone captures(none) %0, ptr noundef %1) #0 {
  %3 = alloca ptr, align 8
  %4 = alloca ptr, align 8
  call void @llvm.lifetime.start.p0(i64 8, ptr nonnull %3) #8
  call void @llvm.lifetime.start.p0(i64 8, ptr nonnull %4) #8
  %5 = call i32 (ptr, ptr, ...) @PyArg_ParseTuple(ptr noundef %1, ptr noundef nonnull @.str.36, ptr noundef nonnull %3, ptr noundef nonnull %4) #8
  %.not = icmp eq i32 %5, 0
  br i1 %.not, label %24, label %6

6:                                                ; preds = %2
  %7 = load ptr, ptr %3, align 8, !tbaa !3
  %8 = icmp eq ptr %7, @_Py_NoneStruct
  br i1 %8, label %9, label %10

9:                                                ; preds = %6
  store ptr null, ptr %3, align 8, !tbaa !3
  br label %10

10:                                               ; preds = %6, %9
  %11 = phi ptr [ %7, %6 ], [ null, %9 ]
  %12 = load ptr, ptr %4, align 8, !tbaa !3
  %13 = icmp eq ptr %12, @_Py_NoneStruct
  br i1 %13, label %14, label %15

14:                                               ; preds = %10
  store ptr null, ptr %4, align 8, !tbaa !3
  br label %15

15:                                               ; preds = %14, %10
  %16 = phi ptr [ null, %14 ], [ %12, %10 ]
  %.not3 = icmp eq ptr %11, null
  br i1 %.not3, label %22, label %17

17:                                               ; preds = %15
  %18 = load i32, ptr %11, align 8, !tbaa !20
  %19 = icmp slt i32 %18, 0
  br i1 %19, label %_Py_NewRef.exit, label %20

20:                                               ; preds = %17
  %21 = add nuw i32 %18, 1
  store i32 %21, ptr %11, align 8, !tbaa !20
  br label %_Py_NewRef.exit

_Py_NewRef.exit:                                  ; preds = %17, %20
  call void @PyErr_SetRaisedException(ptr noundef nonnull %11) #8
  %.pre = load ptr, ptr %4, align 8, !tbaa !3
  br label %22

22:                                               ; preds = %_Py_NewRef.exit, %15
  %23 = phi ptr [ %.pre, %_Py_NewRef.exit ], [ %16, %15 ]
  call void @PyErr_WriteUnraisable(ptr noundef %23) #8
  br label %24

24:                                               ; preds = %2, %22
  %.0 = phi ptr [ @_Py_NoneStruct, %22 ], [ null, %2 ]
  call void @llvm.lifetime.end.p0(i64 8, ptr nonnull %4) #8
  call void @llvm.lifetime.end.p0(i64 8, ptr nonnull %3) #8
  ret ptr %.0
}